; Function Attrs: nounwind sspstrong uwtable
define internal range(i64 1, 16) i64 @d_lite_cwday(i64 noundef %0) #0 {
  %2 = tail call ptr @rb_check_typeddata(i64 noundef %0, ptr noundef nonnull @d_lite_type) #21
  %3 = tail call fastcc i32 @m_local_jd(ptr noundef %2)
  %4 = icmp slt i32 %3, -1
  br i1 %4, label %5, label %9

5:                                                ; preds = %1
  %6 = sub nuw nsw i32 -2, %3
  %7 = urem i32 %6, 7
  %8 = sub nuw nsw i32 6, %7
  br label %m_cwday.exit

9:                                                ; preds = %1
  %10 = add nsw i32 %3, 1
  %11 = urem i32 %10, 7
  br label %m_cwday.exit

m_cwday.exit:                                     ; preds = %5, %9
  %12 = phi i32 [ %8, %5 ], [ %11, %9 ]
  %13 = icmp eq i32 %12, 0
  %14 = shl nuw nsw i32 %12, 1
  %15 = or disjoint i32 %14, 1
  %16 = select i1 %13, i32 15, i32 %15
  %17 = zext nneg i32 %16 to i64
  ret i64 %17
}